target datalayout = "e-m:e-p270:32:32-p271:32:32-p272:64:64-i64:64-i128:128-f80:128-n8:16:32:64-S128"
target triple = "x86_64-pc-linux-gnu"

%struct.SQLFunctionParseInfo = type { ptr, i32, ptr, ptr, i32 }
%struct.Node = type { i32 }
%struct.Expr = type { i32 }
%struct.Param = type { %struct.Expr, i32, i32, i32, i32, i32, i32 }

; Function Attrs: inlinehint nounwind uwtable
define internal ptr @newNode(i64 noundef %0, i32 noundef %1) #2 {
  %3 = alloca i64, align 8
  %4 = alloca i32, align 4
  %5 = alloca ptr, align 8
  store i64 %0, ptr %3, align 8
  store i32 %1, ptr %4, align 4
  call void @llvm.lifetime.start.p0(i64 8, ptr %5) #8
  %6 = load i64, ptr %3, align 8
  %7 = call ptr @palloc0(i64 noundef %6)
  store ptr %7, ptr %5, align 8
  %8 = load i32, ptr %4, align 4
  %9 = load ptr, ptr %5, align 8
  %10 = getelementptr inbounds nuw %struct.Node, ptr %9, i32 0, i32 0
  store i32 %8, ptr %10, align 4
  %11 = load ptr, ptr %5, align 8
  call void @llvm.lifetime.end.p0(i64 8, ptr %5) #8
  ret ptr %11
}

; Function Attrs: nounwind uwtable
define internal ptr @sql_fn_make_param(ptr noundef %0, i32 noundef %1, i32 noundef %2) #0 {
  %4 = alloca ptr, align 8
  %5 = alloca i32, align 4
  %6 = alloca i32, align 4
  %7 = alloca ptr, align 8
  store ptr %0, ptr %4, align 8
  store i32 %1, ptr %5, align 4
  store i32 %2, ptr %6, align 4
  call void @llvm.lifetime.start.p0(i64 8, ptr %7) #8
  %8 = call ptr @newNode(i64 noundef 28, i32 noundef 8)
  store ptr %8, ptr %7, align 8
  %9 = load ptr, ptr %7, align 8
  %10 = getelementptr inbounds nuw %struct.Param, ptr %9, i32 0, i32 1
  store i32 0, ptr %10, align 4
  %11 = load i32, ptr %5, align 4
  %12 = load ptr, ptr %7, align 8
  %13 = getelementptr inbounds nuw %struct.Param, ptr %12, i32 0, i32 2
  store i32 %11, ptr %13, align 4
  %14 = load ptr, ptr %4, align 8
  %15 = getelementptr inbounds nuw %struct.SQLFunctionParseInfo, ptr %14, i32 0, i32 2
  %16 = load ptr, ptr %15, align 8
  %17 = load i32, ptr %5, align 4
  %18 = sub i32 %17, 1
  %19 = sext i32 %18 to i64
  %20 = getelementptr inbounds i32, ptr %16, i64 %19
  %21 = load i32, ptr %20, align 4
  %22 = load ptr, ptr %7, align 8
  %23 = getelementptr inbounds nuw %struct.Param, ptr %22, i32 0, i32 3
  store i32 %21, ptr %23, align 4
  %24 = load ptr, ptr %7, align 8
  %25 = getelementptr inbounds nuw %struct.Param, ptr %24, i32 0, i32 4
  store i32 -1, ptr %25, align 4
  %26 = load ptr, ptr %7, align 8
  %27 = getelementptr inbounds nuw %struct.Param, ptr %26, i32 0, i32 3
  %28 = load i32, ptr %27, align 4
  %29 = call i32 @get_typcollation(i32 noundef %28)
  %30 = load ptr, ptr %7, align 8
  %31 = getelementptr inbounds nuw %struct.Param, ptr %30, i32 0, i32 5
  store i32 %29, ptr %31, align 4
  %32 = load i32, ptr %6, align 4
  %33 = load ptr, ptr %7, align 8
  %34 = getelementptr inbounds nuw %struct.Param, ptr %33, i32 0, i32 6
  store i32 %32, ptr %34, align 4
  %35 = load ptr, ptr %4, align 8
  %36 = getelementptr inbounds nuw %struct.SQLFunctionParseInfo, ptr %35, i32 0, i32 4
  %37 = load i32, ptr %36, align 8
  %38 = icmp ne i32 %37, 0
  br i1 %38, label %39, label %50

39:                                               ; preds = %3
  %40 = load ptr, ptr %7, align 8
  %41 = getelementptr inbounds nuw %struct.Param, ptr %40, i32 0, i32 5
  %42 = load i32, ptr %41, align 4
  %43 = icmp ne i32 %42, 0
  br i1 %43, label %44, label %50

44:                                               ; preds = %39
  %45 = load ptr, ptr %4, align 8
  %46 = getelementptr inbounds nuw %struct.SQLFunctionParseInfo, ptr %45, i32 0, i32 4
  %47 = load i32, ptr %46, align 8
  %48 = load ptr, ptr %7, align 8
  %49 = getelementptr inbounds nuw %struct.Param, ptr %48, i32 0, i32 5
  store i32 %47, ptr %49, align 4
  br label %50

50:                                               ; preds = %44, %39, %3
  %51 = load ptr, ptr %7, align 8
  call void @llvm.lifetime.end.p0(i64 8, ptr %7) #8
  ret ptr %51
}

; Function Attrs: nounwind uwtable
define internal ptr @sql_fn_resolve_param_name(ptr noundef %0, ptr noundef %1, i32 noundef %2) #0 {
  %4 = alloca ptr, align 8
  %5 = alloca ptr, align 8
  %6 = alloca ptr, align 8
  %7 = alloca i32, align 4
  %8 = alloca i32, align 4
  %9 = alloca i32, align 4
  store ptr %0, ptr %5, align 8
  store ptr %1, ptr %6, align 8
  store i32 %2, ptr %7, align 4
  call void @llvm.lifetime.start.p0(i64 4, ptr %8) #8
  %10 = load ptr, ptr %5, align 8
  %11 = getelementptr inbounds nuw %struct.SQLFunctionParseInfo, ptr %10, i32 0, i32 3
  %12 = load ptr, ptr %11, align 8
  %13 = icmp eq ptr %12, null
  br i1 %13, label %14, label %15

14:                                               ; preds = %3
  store ptr null, ptr %4, align 8
  store i32 1, ptr %9, align 4
  br label %53

15:                                               ; preds = %3
  store i32 0, ptr %8, align 4
  br label %16

16:                                               ; preds = %49, %15
  %17 = load i32, ptr %8, align 4
  %18 = load ptr, ptr %5, align 8
  %19 = getelementptr inbounds nuw %struct.SQLFunctionParseInfo, ptr %18, i32 0, i32 1
  %20 = load i32, ptr %19, align 8
  %21 = icmp slt i32 %17, %20
  br i1 %21, label %22, label %52

22:                                               ; preds = %16
  %23 = load ptr, ptr %5, align 8
  %24 = getelementptr inbounds nuw %struct.SQLFunctionParseInfo, ptr %23, i32 0, i32 3
  %25 = load ptr, ptr %24, align 8
  %26 = load i32, ptr %8, align 4
  %27 = sext i32 %26 to i64
  %28 = getelementptr inbounds ptr, ptr %25, i64 %27
  %29 = load ptr, ptr %28, align 8
  %30 = icmp ne ptr %29, null
  br i1 %30, label %31, label %48

31:                                               ; preds = %22
  %32 = load ptr, ptr %5, align 8
  %33 = getelementptr inbounds nuw %struct.SQLFunctionParseInfo, ptr %32, i32 0, i32 3
  %34 = load ptr, ptr %33, align 8
  %35 = load i32, ptr %8, align 4
  %36 = sext i32 %35 to i64
  %37 = getelementptr inbounds ptr, ptr %34, i64 %36
  %38 = load ptr, ptr %37, align 8
  %39 = load ptr, ptr %6, align 8
  %40 = call i32 @strcmp(ptr noundef %38, ptr noundef %39) #10
  %41 = icmp eq i32 %40, 0
  br i1 %41, label %42, label %48

42:                                               ; preds = %31
  %43 = load ptr, ptr %5, align 8
  %44 = load i32, ptr %8, align 4
  %45 = add i32 %44, 1
  %46 = load i32, ptr %7, align 4
  %47 = call ptr @sql_fn_make_param(ptr noundef %43, i32 noundef %45, i32 noundef %46)
  store ptr %47, ptr %4, align 8
  store i32 1, ptr %9, align 4
  br label %53

48:                                               ; preds = %31, %22
  br label %49

49:                                               ; preds = %48
  %50 = load i32, ptr %8, align 4
  %51 = add i32 %50, 1
  store i32 %51, ptr %8, align 4
  br label %16, !llvm.loop !29

52:                                               ; preds = %16
  store ptr null, ptr %4, align 8
  store i32 1, ptr %9, align 4
  br label %53

53:                                               ; preds = %52, %42, %14
  call void @llvm.lifetime.end.p0(i64 4, ptr %8) #8
  %54 = load ptr, ptr %4, align 8
  ret ptr %54
}