; Function Attrs: nounwind uwtable
define internal fastcc noundef ptr @sql_fn_resolve_param_name(ptr noundef readonly captures(none) %0, ptr noundef readonly captures(none) %1, i32 noundef %2) unnamed_addr #0 {
  %4 = getelementptr inbounds nuw i8, ptr %0, i64 24
  %5 = load ptr, ptr %4, align 8
  %6 = icmp eq ptr %5, null
  br i1 %6, label %sql_fn_make_param.exit, label %.preheader

.preheader:                                       ; preds = %3
  %7 = getelementptr inbounds nuw i8, ptr %0, i64 8
  %8 = load i32, ptr %7, align 8
  %9 = icmp sgt i32 %8, 0
  br i1 %9, label %.lr.ph.preheader, label %sql_fn_make_param.exit

.lr.ph.preheader:                                 ; preds = %.preheader
  %wide.trip.count = zext nneg i32 %8 to i64
  br label %.lr.ph

.lr.ph:                                           ; preds = %.lr.ph.preheader, %33
  %indvars.iv = phi i64 [ 0, %.lr.ph.preheader ], [ %indvars.iv.next, %33 ]
  %10 = getelementptr inbounds nuw ptr, ptr %5, i64 %indvars.iv
  %11 = load ptr, ptr %10, align 8
  %.not = icmp eq ptr %11, null
  br i1 %.not, label %33, label %12

12:                                               ; preds = %.lr.ph
  %13 = tail call i32 @strcmp(ptr noundef nonnull dereferenceable(1) %11, ptr noundef nonnull dereferenceable(1) %1) #13
  %14 = icmp eq i32 %13, 0
  br i1 %14, label %15, label %33

15:                                               ; preds = %12
  %16 = trunc nuw nsw i64 %indvars.iv to i32
  %17 = add nuw nsw i32 %16, 1
  %18 = tail call noundef ptr @palloc0(i64 noundef 28) #11
  store i32 8, ptr %18, align 4
  %19 = getelementptr inbounds nuw i8, ptr %18, i64 4
  store i32 0, ptr %19, align 4
  %20 = getelementptr inbounds nuw i8, ptr %18, i64 8
  store i32 %17, ptr %20, align 4
  %21 = getelementptr inbounds nuw i8, ptr %0, i64 16
  %22 = load ptr, ptr %21, align 8
  %23 = getelementptr inbounds nuw i32, ptr %22, i64 %indvars.iv
  %24 = load i32, ptr %23, align 4
  %25 = getelementptr inbounds nuw i8, ptr %18, i64 12
  store i32 %24, ptr %25, align 4
  %26 = getelementptr inbounds nuw i8, ptr %18, i64 16
  store i32 -1, ptr %26, align 4
  %27 = tail call i32 @get_typcollation(i32 noundef %24) #11
  %28 = getelementptr inbounds nuw i8, ptr %18, i64 20
  store i32 %27, ptr %28, align 4
  %29 = getelementptr inbounds nuw i8, ptr %18, i64 24
  store i32 %2, ptr %29, align 4
  %30 = getelementptr inbounds nuw i8, ptr %0, i64 32
  %31 = load i32, ptr %30, align 8
  %.not.i = icmp eq i32 %31, 0
  %.not15.i = icmp eq i32 %27, 0
  %or.cond.i = select i1 %.not.i, i1 true, i1 %.not15.i
  br i1 %or.cond.i, label %sql_fn_make_param.exit, label %32

32:                                               ; preds = %15
  store i32 %31, ptr %28, align 4
  br label %sql_fn_make_param.exit

33:                                               ; preds = %.lr.ph, %12
  %indvars.iv.next = add nuw nsw i64 %indvars.iv, 1
  %exitcond.not = icmp eq i64 %indvars.iv.next, %wide.trip.count
  br i1 %exitcond.not, label %sql_fn_make_param.exit, label %.lr.ph, !llvm.loop !8

sql_fn_make_param.exit:                           ; preds = %33, %.preheader, %32, %15, %3
  %.012 = phi ptr [ null, %3 ], [ %18, %15 ], [ %18, %32 ], [ null, %.preheader ], [ null, %33 ]
  ret ptr %.012
}